; Function Attrs: mustprogress nounwind uwtable
define dso_local noundef zeroext i1 @_ZNK5clang14IdentifierInfo18isCPlusPlusKeywordERKNS_11LangOptionsE(ptr nocapture noundef nonnull readonly align 8 dereferenceable(24) %0, ptr noundef nonnull align 8 dereferenceable(841) %1) local_unnamed_addr #3 align 2 {
  %3 = alloca %"class.clang::LangOptions", align 8
  %4 = load i64, ptr %1, align 8
  %5 = and i64 %4, 2048
  %.not = icmp eq i64 %5, 0
  br i1 %.not, label %13, label %6

6:                                                ; preds = %2
  %7 = tail call noundef zeroext i1 @_ZNK5clang14IdentifierInfo9isKeywordERKNS_11LangOptionsE(ptr noundef nonnull align 8 dereferenceable(24) %0, ptr noundef nonnull align 8 dereferenceable(841) %1)
  br i1 %7, label %8, label %13

8:                                                ; preds = %6
  call void @_ZN5clang11LangOptionsC2ERKS0_(ptr noundef nonnull align 8 dereferenceable(841) %3, ptr noundef nonnull align 8 dereferenceable(841) %1)
  %9 = load i64, ptr %3, align 8
  %10 = and i64 %9, -38913
  store i64 %10, ptr %3, align 8
  %11 = call noundef zeroext i1 @_ZNK5clang14IdentifierInfo9isKeywordERKNS_11LangOptionsE(ptr noundef nonnull align 8 dereferenceable(24) %0, ptr noundef nonnull align 8 dereferenceable(841) %3)
  %12 = xor i1 %11, true
  call void @_ZN5clang11LangOptionsD2Ev(ptr noundef nonnull align 8 dereferenceable(841) %3) #26
  br label %13

13:                                               ; preds = %2, %6, %8
  %.0 = phi i1 [ %12, %8 ], [ false, %6 ], [ false, %2 ]
  ret i1 %.0
}